target datalayout = "e-m:e-p270:32:32-p271:32:32-p272:64:64-i64:64-i128:128-f80:128-n8:16:32:64-S128"
target triple = "x86_64-pc-linux-gnu"

%struct._GList = type { ptr, ptr, ptr }
%struct._address = type { i32, i32, ptr, ptr }
%struct._h323_calls_info = type { ptr, ptr, %struct._address, i8, i8, i8, i8, i32, i32, i32 }
%struct._h245_address = type { %struct._address, i16 }

; Function Attrs: inlinehint nounwind null_pointer_is_valid sspstrong uwtable
define internal void @clear_address(ptr noundef %0) #4 {
  %2 = alloca ptr, align 8
  store ptr %0, ptr %2, align 8
  %3 = load ptr, ptr %2, align 8
  %4 = getelementptr inbounds nuw %struct._address, ptr %3, i32 0, i32 0
  store i32 0, ptr %4, align 8
  %5 = load ptr, ptr %2, align 8
  %6 = getelementptr inbounds nuw %struct._address, ptr %5, i32 0, i32 1
  store i32 0, ptr %6, align 4
  %7 = load ptr, ptr %2, align 8
  %8 = getelementptr inbounds nuw %struct._address, ptr %7, i32 0, i32 2
  store ptr null, ptr %8, align 8
  %9 = load ptr, ptr %2, align 8
  %10 = getelementptr inbounds nuw %struct._address, ptr %9, i32 0, i32 3
  store ptr null, ptr %10, align 8
  ret void
}

; Function Attrs: inlinehint null_pointer_is_valid sspstrong uwtable
define internal void @free_address_wmem(ptr noundef %0, ptr noundef %1) #5 {
  %3 = alloca ptr, align 8
  %4 = alloca ptr, align 8
  store ptr %0, ptr %3, align 8
  store ptr %1, ptr %4, align 8
  %5 = load ptr, ptr %4, align 8
  %6 = getelementptr inbounds nuw %struct._address, ptr %5, i32 0, i32 0
  %7 = load i32, ptr %6, align 8
  %8 = icmp ne i32 %7, 0
  br i1 %8, label %9, label %26

9:                                                ; preds = %2
  %10 = load ptr, ptr %4, align 8
  %11 = getelementptr inbounds nuw %struct._address, ptr %10, i32 0, i32 1
  %12 = load i32, ptr %11, align 4
  %13 = icmp sgt i32 %12, 0
  br i1 %13, label %14, label %26

14:                                               ; preds = %9
  %15 = load ptr, ptr %4, align 8
  %16 = getelementptr inbounds nuw %struct._address, ptr %15, i32 0, i32 3
  %17 = load ptr, ptr %16, align 8
  %18 = icmp ne ptr %17, null
  br i1 %18, label %19, label %26

19:                                               ; preds = %14
  br label %20

20:                                               ; preds = %19
  br label %21

21:                                               ; preds = %20
  %22 = load ptr, ptr %3, align 8
  %23 = load ptr, ptr %4, align 8
  %24 = getelementptr inbounds nuw %struct._address, ptr %23, i32 0, i32 3
  %25 = load ptr, ptr %24, align 8
  call void @wmem_free(ptr noundef %22, ptr noundef %25)
  br label %26

26:                                               ; preds = %21, %14, %9, %2
  %27 = load ptr, ptr %4, align 8
  call void @clear_address(ptr noundef %27)
  ret void
}

; Function Attrs: inlinehint null_pointer_is_valid sspstrong uwtable
define internal void @free_address(ptr noundef %0) #5 {
  %2 = alloca ptr, align 8
  store ptr %0, ptr %2, align 8
  %3 = load ptr, ptr %2, align 8
  call void @free_address_wmem(ptr noundef null, ptr noundef %3)
  ret void
}

; Function Attrs: null_pointer_is_valid sspstrong uwtable
define internal void @free_h225_info(ptr noundef %0) #0 {
  %2 = alloca ptr, align 8
  %3 = alloca ptr, align 8
  %4 = alloca ptr, align 8
  %5 = alloca ptr, align 8
  store ptr %0, ptr %2, align 8
  call void @llvm.lifetime.start.p0(i64 8, ptr %3) #16
  %6 = load ptr, ptr %2, align 8
  store ptr %6, ptr %3, align 8
  %7 = load ptr, ptr %3, align 8
  %8 = getelementptr inbounds nuw %struct._h323_calls_info, ptr %7, i32 0, i32 0
  %9 = load ptr, ptr %8, align 8
  call void @g_free(ptr noundef %9)
  %10 = load ptr, ptr %3, align 8
  %11 = getelementptr inbounds nuw %struct._h323_calls_info, ptr %10, i32 0, i32 1
  %12 = load ptr, ptr %11, align 8
  %13 = icmp ne ptr %12, null
  br i1 %13, label %14, label %44

14:                                               ; preds = %1
  call void @llvm.lifetime.start.p0(i64 8, ptr %4) #16
  %15 = load ptr, ptr %3, align 8
  %16 = getelementptr inbounds nuw %struct._h323_calls_info, ptr %15, i32 0, i32 1
  %17 = load ptr, ptr %16, align 8
  %18 = call ptr @g_list_first(ptr noundef %17)
  store ptr %18, ptr %4, align 8
  br label %19

19:                                               ; preds = %38, %14
  %20 = load ptr, ptr %4, align 8
  %21 = icmp ne ptr %20, null
  br i1 %21, label %22, label %40

22:                                               ; preds = %19
  call void @llvm.lifetime.start.p0(i64 8, ptr %5) #16
  %23 = load ptr, ptr %4, align 8
  %24 = getelementptr inbounds nuw %struct._GList, ptr %23, i32 0, i32 0
  %25 = load ptr, ptr %24, align 8
  store ptr %25, ptr %5, align 8
  %26 = load ptr, ptr %5, align 8
  %27 = getelementptr inbounds nuw %struct._h245_address, ptr %26, i32 0, i32 0
  call void @free_address(ptr noundef %27)
  %28 = load ptr, ptr %4, align 8
  %29 = getelementptr inbounds nuw %struct._GList, ptr %28, i32 0, i32 0
  %30 = load ptr, ptr %29, align 8
  call void @g_free(ptr noundef %30)
  %31 = load ptr, ptr %4, align 8
  %32 = icmp ne ptr %31, null
  br i1 %32, label %33, label %37

33:                                               ; preds = %22
  %34 = load ptr, ptr %4, align 8
  %35 = getelementptr inbounds nuw %struct._GList, ptr %34, i32 0, i32 1
  %36 = load ptr, ptr %35, align 8
  br label %38

37:                                               ; preds = %22
  br label %38

38:                                               ; preds = %37, %33
  %39 = phi ptr [ %36, %33 ], [ null, %37 ]
  store ptr %39, ptr %4, align 8
  call void @llvm.lifetime.end.p0(i64 8, ptr %5) #16
  br label %19, !llvm.loop !28

40:                                               ; preds = %19
  %41 = load ptr, ptr %3, align 8
  %42 = getelementptr inbounds nuw %struct._h323_calls_info, ptr %41, i32 0, i32 1
  %43 = load ptr, ptr %42, align 8
  call void @g_list_free(ptr noundef %43)
  call void @llvm.lifetime.end.p0(i64 8, ptr %4) #16
  br label %44

44:                                               ; preds = %40, %1
  %45 = load ptr, ptr %2, align 8
  call void @g_free(ptr noundef %45)
  call void @llvm.lifetime.end.p0(i64 8, ptr %3) #16
  ret void
}