; Function Attrs: null_pointer_is_valid sspstrong uwtable
define internal void @free_h225_info(ptr noundef %0) #0 {
  %2 = load ptr, ptr %0, align 8
  tail call void @g_free(ptr noundef %2)
  %3 = getelementptr inbounds nuw i8, ptr %0, i64 8
  %4 = load ptr, ptr %3, align 8
  %.not = icmp eq ptr %4, null
  br i1 %.not, label %21, label %5

5:                                                ; preds = %1
  %6 = tail call ptr @g_list_first(ptr noundef nonnull %4)
  %.not1314 = icmp eq ptr %6, null
  br i1 %.not1314, label %._crit_edge, label %.lr.ph

.lr.ph:                                           ; preds = %5, %free_address.exit
  %.015 = phi ptr [ %19, %free_address.exit ], [ %6, %5 ]
  %7 = load ptr, ptr %.015, align 8
  %8 = load i32, ptr %7, align 8
  %.not.i.i = icmp eq i32 %8, 0
  br i1 %.not.i.i, label %free_address.exit, label %9

9:                                                ; preds = %.lr.ph
  %10 = getelementptr inbounds nuw i8, ptr %7, i64 4
  %11 = load i32, ptr %10, align 4
  %12 = icmp sgt i32 %11, 0
  br i1 %12, label %13, label %free_address.exit

13:                                               ; preds = %9
  %14 = getelementptr inbounds nuw i8, ptr %7, i64 16
  %15 = load ptr, ptr %14, align 8
  %.not6.i.i = icmp eq ptr %15, null
  br i1 %.not6.i.i, label %free_address.exit, label %16

16:                                               ; preds = %13
  tail call void @wmem_free(ptr noundef null, ptr noundef nonnull %15)
  br label %free_address.exit

free_address.exit:                                ; preds = %.lr.ph, %9, %13, %16
  tail call void @llvm.memset.p0.i64(ptr noundef align 8 dereferenceable(24) %7, i8 0, i64 24, i1 false)
  %17 = load ptr, ptr %.015, align 8
  tail call void @g_free(ptr noundef %17)
  %18 = getelementptr inbounds nuw i8, ptr %.015, i64 8
  %19 = load ptr, ptr %18, align 8
  %.not13 = icmp eq ptr %19, null
  br i1 %.not13, label %._crit_edge, label %.lr.ph, !llvm.loop !28

._crit_edge:                                      ; preds = %free_address.exit, %5
  %20 = load ptr, ptr %3, align 8
  tail call void @g_list_free(ptr noundef %20)
  br label %21

21:                                               ; preds = %._crit_edge, %1
  tail call void @g_free(ptr noundef %0)
  ret void
}